target datalayout = "e-m:e-p270:32:32-p271:32:32-p272:64:64-i64:64-i128:128-f80:128-n8:16:32:64-S128"
target triple = "x86_64-pc-linux-gnu"

%struct._zval_struct = type { %union._zend_value, %union.anon, %union.anon.2 }
%union._zend_value = type { i64 }
%union.anon = type { i32 }
%union.anon.2 = type { i32 }
%struct._zend_array = type { %struct._zend_refcounted_h, %union.anon.4, i32, %union.anon.6, i32, i32, i32, i32, i64, ptr }
%struct._zend_refcounted_h = type { i32, %union.anon.3 }
%union.anon.3 = type { i32 }
%union.anon.4 = type { i32 }
%union.anon.6 = type { ptr }
%struct._zend_module_entry = type { i16, i32, i8, i8, ptr, ptr, ptr, ptr, ptr, ptr, ptr, ptr, ptr, ptr, i64, ptr, ptr, ptr, ptr, i32, i8, ptr, i32, ptr }

@module_registry = external global %struct._zend_array, align 8

; Function Attrs: nounwind uwtable
define i32 @zend_register_ini_entries(ptr noundef %0, i32 noundef %1) #0 {
  %3 = alloca ptr, align 8
  %4 = alloca i32, align 4
  %5 = alloca ptr, align 8
  %6 = alloca i32, align 4
  %7 = alloca ptr, align 8
  %8 = alloca ptr, align 8
  %9 = alloca i32, align 4
  %10 = alloca i64, align 8
  %11 = alloca ptr, align 8
  store ptr %0, ptr %5, align 8
  store i32 %1, ptr %6, align 4
  br label %12

12:                                               ; preds = %2
  store ptr @module_registry, ptr %8, align 8
  %13 = load ptr, ptr %8, align 8
  %14 = getelementptr inbounds %struct._zend_array, ptr %13, i32 0, i32 4
  %15 = load i32, ptr %14, align 8
  store i32 %15, ptr %9, align 4
  %16 = load ptr, ptr %8, align 8
  %17 = getelementptr inbounds %struct._zend_array, ptr %16, i32 0, i32 1
  %18 = load i32, ptr %17, align 8
  %19 = xor i32 %18, -1
  %20 = and i32 %19, 4
  %21 = zext i32 %20 to i64
  %22 = mul i64 %21, 4
  %23 = add i64 16, %22
  store i64 %23, ptr %10, align 8
  %24 = load ptr, ptr %8, align 8
  %25 = getelementptr inbounds %struct._zend_array, ptr %24, i32 0, i32 3
  %26 = load ptr, ptr %25, align 8
  %27 = load i32, ptr %9, align 4
  %28 = zext i32 %27 to i64
  %29 = load i64, ptr %10, align 8
  %30 = mul i64 %28, %29
  %31 = getelementptr inbounds i8, ptr %26, i64 %30
  store ptr %31, ptr %11, align 8
  br label %32

32:                                               ; preds = %70, %12
  %33 = load i32, ptr %9, align 4
  %34 = icmp ugt i32 %33, 0
  br i1 %34, label %35, label %73

35:                                               ; preds = %32
  %36 = load ptr, ptr %11, align 8
  %37 = load i64, ptr %10, align 8
  %38 = sub i64 0, %37
  %39 = getelementptr inbounds i8, ptr %36, i64 %38
  store ptr %39, ptr %11, align 8
  %40 = load ptr, ptr %11, align 8
  store ptr %40, ptr %3, align 8
  %41 = load ptr, ptr %3, align 8
  %42 = getelementptr inbounds %struct._zval_struct, ptr %41, i32 0, i32 1
  %43 = load i8, ptr %42, align 8
  %44 = zext i8 %43 to i32
  %45 = icmp eq i32 %44, 0
  %46 = xor i1 %45, true
  %47 = xor i1 %46, true
  %48 = zext i1 %47 to i32
  %49 = sext i32 %48 to i64
  %50 = icmp ne i64 %49, 0
  br i1 %50, label %51, label %52

51:                                               ; preds = %35
  br label %70

52:                                               ; preds = %35
  %53 = load ptr, ptr %11, align 8
  %54 = getelementptr inbounds %struct._zval_struct, ptr %53, i32 0, i32 0
  %55 = load ptr, ptr %54, align 8
  store ptr %55, ptr %7, align 8
  %56 = load ptr, ptr %7, align 8
  %57 = getelementptr inbounds %struct._zend_module_entry, ptr %56, i32 0, i32 22
  %58 = load i32, ptr %57, align 8
  %59 = load i32, ptr %6, align 4
  %60 = icmp eq i32 %58, %59
  br i1 %60, label %61, label %69

61:                                               ; preds = %52
  %62 = load ptr, ptr %5, align 8
  %63 = load i32, ptr %6, align 4
  %64 = load ptr, ptr %7, align 8
  %65 = getelementptr inbounds %struct._zend_module_entry, ptr %64, i32 0, i32 20
  %66 = load i8, ptr %65, align 4
  %67 = zext i8 %66 to i32
  %68 = call i32 @zend_register_ini_entries_ex(ptr noundef %62, i32 noundef %63, i32 noundef %67)
  store i32 %68, ptr %4, align 4
  br label %75

69:                                               ; preds = %52
  br label %70

70:                                               ; preds = %69, %51
  %71 = load i32, ptr %9, align 4
  %72 = add i32 %71, -1
  store i32 %72, ptr %9, align 4
  br label %32

73:                                               ; preds = %32
  br label %74

74:                                               ; preds = %73
  store i32 -1, ptr %4, align 4
  br label %75

75:                                               ; preds = %74, %61
  %76 = load i32, ptr %4, align 4
  ret i32 %76
}