; Function Attrs: nounwind uwtable
define noundef i32 @zend_register_ini_entries(ptr nocapture noundef readonly %0, i32 noundef %1) local_unnamed_addr #0 {
  %3 = load i32, ptr getelementptr inbounds (%struct._zend_array, ptr @module_registry, i64 0, i32 4), align 8
  %.not20 = icmp eq i32 %3, 0
  br i1 %.not20, label %.loopexit, label %.lr.ph

.lr.ph:                                           ; preds = %2
  %4 = load ptr, ptr getelementptr inbounds (%struct._zend_array, ptr @module_registry, i64 0, i32 3), align 8
  %5 = load i32, ptr getelementptr inbounds (%struct._zend_array, ptr @module_registry, i64 0, i32 1), align 8
  %6 = shl i32 %5, 2
  %7 = and i32 %6, 16
  %8 = xor i32 %7, 16
  %narrow = add nuw nsw i32 %8, 16
  %9 = zext nneg i32 %narrow to i64
  %10 = zext i32 %3 to i64
  %11 = mul nuw nsw i64 %9, %10
  %12 = getelementptr inbounds i8, ptr %4, i64 %11
  %13 = sub nsw i64 0, %9
  br label %14

14:                                               ; preds = %.lr.ph, %29
  %.022 = phi ptr [ %12, %.lr.ph ], [ %15, %29 ]
  %.01821 = phi i32 [ %3, %.lr.ph ], [ %30, %29 ]
  %15 = getelementptr inbounds i8, ptr %.022, i64 %13
  %16 = getelementptr inbounds i8, ptr %15, i64 8
  %17 = load i8, ptr %16, align 8
  %18 = icmp eq i8 %17, 0
  br i1 %18, label %29, label %19

19:                                               ; preds = %14
  %20 = load ptr, ptr %15, align 8
  %21 = getelementptr inbounds i8, ptr %20, i64 152
  %22 = load i32, ptr %21, align 8
  %23 = icmp eq i32 %22, %1
  br i1 %23, label %24, label %29

24:                                               ; preds = %19
  %25 = getelementptr inbounds i8, ptr %20, i64 140
  %26 = load i8, ptr %25, align 4
  %27 = zext i8 %26 to i32
  %28 = tail call i32 @zend_register_ini_entries_ex(ptr noundef %0, i32 noundef %1, i32 noundef %27), !range !4
  br label %.loopexit

29:                                               ; preds = %19, %14
  %30 = add i32 %.01821, -1
  %.not = icmp eq i32 %30, 0
  br i1 %.not, label %.loopexit, label %14

.loopexit:                                        ; preds = %29, %2, %24
  %.017 = phi i32 [ %28, %24 ], [ -1, %2 ], [ -1, %29 ]
  ret i32 %.017
}